; Function Attrs: mustprogress uwtable
define void @_ZNK8facebook5velox4core20DereferenceTypedExpr9serializeEv(ptr noalias sret(%"struct.folly::dynamic") align 8 %agg.result, ptr nocapture noundef nonnull readonly align 8 dereferenceable(52) %this) unnamed_addr #0 align 2 personality ptr @__gxx_personality_v0 {
invoke.cont:
  %ref.tmp = alloca %"struct.folly::dynamic", align 8
  tail call void @_ZNK8facebook5velox4core10ITypedExpr13serializeBaseESt17basic_string_viewIcSt11char_traitsIcEE(ptr sret(%"struct.folly::dynamic") align 8 %agg.result, ptr noundef nonnull align 8 dereferenceable(48) %this, i64 20, ptr nonnull @.str.7)
  %index_ = getelementptr inbounds i8, ptr %this, i64 48
  %0 = load i32, ptr %index_, align 8
  %u_.i = getelementptr inbounds i8, ptr %ref.tmp, i64 8
  store i32 4, ptr %ref.tmp, align 8
  %conv.i = zext i32 %0 to i64
  store i64 %conv.i, ptr %u_.i, align 8
  %call = invoke noundef nonnull align 8 dereferenceable(40) ptr @_ZNR5folly7dynamicixENS_5RangeIPKcEE(ptr noundef nonnull align 8 dereferenceable(40) %agg.result, ptr nonnull @.str.15, ptr nonnull getelementptr inbounds ([11 x i8], ptr @.str.15, i64 0, i64 10))
          to label %invoke.cont5 unwind label %lpad3

invoke.cont5:                                     ; preds = %invoke.cont
  %call6 = call noundef nonnull align 8 dereferenceable(40) ptr @_ZN5folly7dynamicaSEOS0_(ptr noundef nonnull align 8 dereferenceable(40) %call, ptr noundef nonnull align 8 dereferenceable(40) %ref.tmp) #26
  call void @_ZN5folly7dynamic7destroyEv(ptr noundef nonnull align 8 dereferenceable(40) %ref.tmp) #26
  ret void

lpad3:                                            ; preds = %invoke.cont
  %1 = landingpad { ptr, i32 }
          cleanup
  call void @_ZN5folly7dynamic7destroyEv(ptr noundef nonnull align 8 dereferenceable(40) %ref.tmp) #26
  call void @_ZN5folly7dynamic7destroyEv(ptr noundef nonnull align 8 dereferenceable(40) %agg.result) #26
  resume { ptr, i32 } %1
}